target datalayout = "e-m:e-p270:32:32-p271:32:32-p272:64:64-i64:64-i128:128-f80:128-n8:16:32:64-S128"
target triple = "x86_64-pc-linux-gnu"

%struct.GCRef = type { i64 }
%struct.jit_State = type { %struct.GCtrace, ptr, ptr, ptr, ptr, ptr, ptr, i32, i32, i32, i8, i8, %struct.IRType1, i8, %struct.FoldState, ptr, i32, i32, i32, i32, i32, i32, i32, [1 x i32], [5 x %union.TValue], [3 x %union.TValue], ptr, i32, i32, i32, i32, ptr, ptr, i32, i32, i8, ptr, i32, i32, i16, [101 x i16], [258 x i32], [15 x i32], [16 x ptr], [64 x %struct.HotPenalty], i32, [16 x %struct.BPropEntry], i32, %struct.ScEvEntry, ptr, i32, i32, i32, ptr, i32, i32, ptr, ptr, ptr, i64, i64, %union.TValue, ptr, i32, i32 }
%struct.GCtrace = type { %struct.GCRef, i8, i8, i16, i32, i32, %struct.GCRef, ptr, i32, i32, ptr, ptr, %struct.GCRef, %struct.MRef, i32, i32, ptr, i32, i16, i16, i16, i16, i16, i16, i16, i8, i8, i8, i8 }
%struct.MRef = type { i64 }
%struct.IRType1 = type { i8 }
%struct.FoldState = type { %union.IRIns, [2 x %union.IRIns], [2 x %union.IRIns] }
%union.IRIns = type { %struct.GCRef }
%struct.HotPenalty = type { %struct.MRef, i16, i16 }
%struct.BPropEntry = type { i16, i16, i32 }
%struct.ScEvEntry = type { %struct.MRef, i16, i16, i16, i16, %struct.IRType1, i8 }
%union.TValue = type { i64 }
%struct.anon.2 = type { i16, i16, i16, i16 }
%struct.RecordFFData = type { ptr, i64, i32 }
%struct.RecordIndex = type { %union.TValue, %union.TValue, %union.TValue, %union.TValue, ptr, ptr, i32, i32, i32, i32, i32, i32 }

@.str = private unnamed_addr constant [23 x i8] c"copy of dead GC object\00", align 1

; Function Attrs: alwaysinline nounwind uwtable
define internal void @checklivetv(ptr noundef %0, ptr noundef %1, ptr noundef %2) #1 {
  %4 = alloca ptr, align 8
  %5 = alloca ptr, align 8
  %6 = alloca ptr, align 8
  store ptr %0, ptr %4, align 8, !tbaa !87
  store ptr %1, ptr %5, align 8, !tbaa !11
  store ptr %2, ptr %6, align 8, !tbaa !92
  ret void
}

; Function Attrs: alwaysinline nounwind uwtable
define internal void @lj_ir_set_(ptr noundef %0, i16 noundef zeroext %1, i16 noundef zeroext %2, i16 noundef zeroext %3) #1 {
  %5 = alloca ptr, align 8
  %6 = alloca i16, align 2
  %7 = alloca i16, align 2
  %8 = alloca i16, align 2
  store ptr %0, ptr %5, align 8, !tbaa !4
  store i16 %1, ptr %6, align 2, !tbaa !14
  store i16 %2, ptr %7, align 2, !tbaa !14
  store i16 %3, ptr %8, align 2, !tbaa !14
  %9 = load i16, ptr %6, align 2, !tbaa !14
  %10 = load ptr, ptr %5, align 8, !tbaa !4
  %11 = getelementptr inbounds nuw %struct.jit_State, ptr %10, i32 0, i32 14
  %12 = getelementptr inbounds nuw %struct.FoldState, ptr %11, i32 0, i32 0
  %13 = getelementptr inbounds nuw %struct.anon.2, ptr %12, i32 0, i32 2
  store i16 %9, ptr %13, align 4, !tbaa !13
  %14 = load i16, ptr %7, align 2, !tbaa !14
  %15 = load ptr, ptr %5, align 8, !tbaa !4
  %16 = getelementptr inbounds nuw %struct.jit_State, ptr %15, i32 0, i32 14
  %17 = getelementptr inbounds nuw %struct.FoldState, ptr %16, i32 0, i32 0
  %18 = getelementptr inbounds nuw %struct.anon.2, ptr %17, i32 0, i32 0
  store i16 %14, ptr %18, align 8, !tbaa !13
  %19 = load i16, ptr %8, align 2, !tbaa !14
  %20 = load ptr, ptr %5, align 8, !tbaa !4
  %21 = getelementptr inbounds nuw %struct.jit_State, ptr %20, i32 0, i32 14
  %22 = getelementptr inbounds nuw %struct.FoldState, ptr %21, i32 0, i32 0
  %23 = getelementptr inbounds nuw %struct.anon.2, ptr %22, i32 0, i32 1
  store i16 %19, ptr %23, align 2, !tbaa !13
  ret void
}

; Function Attrs: alwaysinline nounwind uwtable
define internal void @copyTV(ptr noundef %0, ptr noundef %1, ptr noundef %2) #1 {
  %4 = alloca ptr, align 8
  %5 = alloca ptr, align 8
  %6 = alloca ptr, align 8
  store ptr %0, ptr %4, align 8, !tbaa !87
  store ptr %1, ptr %5, align 8, !tbaa !11
  store ptr %2, ptr %6, align 8, !tbaa !11
  %7 = load ptr, ptr %5, align 8, !tbaa !11
  %8 = load ptr, ptr %6, align 8, !tbaa !11
  call void @llvm.memcpy.p0.p0.i64(ptr align 8 %7, ptr align 8 %8, i64 8, i1 false), !tbaa.struct !91
  %9 = load ptr, ptr %4, align 8, !tbaa !87
  %10 = load ptr, ptr %5, align 8, !tbaa !11
  call void @checklivetv(ptr noundef %9, ptr noundef %10, ptr noundef @.str)
  ret void
}

; Function Attrs: nounwind uwtable
define internal void @recff_setmetatable(ptr noundef %0, ptr noundef %1) #0 {
  %3 = alloca ptr, align 8
  %4 = alloca ptr, align 8
  %5 = alloca i32, align 4
  %6 = alloca i32, align 4
  %7 = alloca i32, align 4
  %8 = alloca i32, align 4
  %9 = alloca %struct.RecordIndex, align 8
  store ptr %0, ptr %3, align 8, !tbaa !4
  store ptr %1, ptr %4, align 8, !tbaa !46
  call void @llvm.lifetime.start.p0(i64 4, ptr %5) #9
  %10 = load ptr, ptr %3, align 8, !tbaa !4
  %11 = getelementptr inbounds nuw %struct.jit_State, ptr %10, i32 0, i32 6
  %12 = load ptr, ptr %11, align 8, !tbaa !41
  %13 = getelementptr inbounds i32, ptr %12, i64 0
  %14 = load i32, ptr %13, align 4, !tbaa !9
  store i32 %14, ptr %5, align 4, !tbaa !9
  call void @llvm.lifetime.start.p0(i64 4, ptr %6) #9
  %15 = load ptr, ptr %3, align 8, !tbaa !4
  %16 = getelementptr inbounds nuw %struct.jit_State, ptr %15, i32 0, i32 6
  %17 = load ptr, ptr %16, align 8, !tbaa !41
  %18 = getelementptr inbounds i32, ptr %17, i64 1
  %19 = load i32, ptr %18, align 4, !tbaa !9
  store i32 %19, ptr %6, align 4, !tbaa !9
  %20 = load i32, ptr %5, align 4, !tbaa !9
  %21 = and i32 %20, 520093696
  %22 = icmp eq i32 %21, 184549376
  br i1 %22, label %23, label %86

23:                                               ; preds = %2
  %24 = load i32, ptr %6, align 4, !tbaa !9
  %25 = and i32 %24, 520093696
  %26 = icmp eq i32 %25, 184549376
  br i1 %26, label %34, label %27

27:                                               ; preds = %23
  %28 = load i32, ptr %6, align 4, !tbaa !9
  %29 = icmp ne i32 %28, 0
  br i1 %29, label %30, label %86

30:                                               ; preds = %27
  %31 = load i32, ptr %6, align 4, !tbaa !9
  %32 = and i32 %31, 520093696
  %33 = icmp eq i32 %32, 0
  br i1 %33, label %34, label %86

34:                                               ; preds = %30, %23
  call void @llvm.lifetime.start.p0(i64 4, ptr %7) #9
  call void @llvm.lifetime.start.p0(i64 4, ptr %8) #9
  call void @llvm.lifetime.start.p0(i64 72, ptr %9) #9
  %35 = load i32, ptr %5, align 4, !tbaa !9
  %36 = getelementptr inbounds nuw %struct.RecordIndex, ptr %9, i32 0, i32 6
  store i32 %35, ptr %36, align 8, !tbaa !50
  %37 = load ptr, ptr %3, align 8, !tbaa !4
  %38 = getelementptr inbounds nuw %struct.jit_State, ptr %37, i32 0, i32 2
  %39 = load ptr, ptr %38, align 8, !tbaa !37
  %40 = getelementptr inbounds nuw %struct.RecordIndex, ptr %9, i32 0, i32 0
  %41 = load ptr, ptr %4, align 8, !tbaa !46
  %42 = getelementptr inbounds nuw %struct.RecordFFData, ptr %41, i32 0, i32 0
  %43 = load ptr, ptr %42, align 8, !tbaa !40
  %44 = getelementptr inbounds %union.TValue, ptr %43, i64 0
  call void @copyTV(ptr noundef %39, ptr noundef %40, ptr noundef %44)
  %45 = load ptr, ptr %3, align 8, !tbaa !4
  %46 = call i32 @lj_record_mm_lookup(ptr noundef %45, ptr noundef %9, i32 noundef 17)
  %47 = load ptr, ptr %3, align 8, !tbaa !4
  %48 = load i32, ptr %5, align 4, !tbaa !9
  %49 = trunc i32 %48 to i16
  call void @lj_ir_set_(ptr noundef %47, i16 noundef zeroext 15881, i16 noundef zeroext %49, i16 noundef zeroext 5)
  %50 = load ptr, ptr %3, align 8, !tbaa !4
  %51 = call i32 @lj_opt_fold(ptr noundef %50)
  store i32 %51, ptr %7, align 4, !tbaa !9
  %52 = load i32, ptr %6, align 4, !tbaa !9
  %53 = and i32 %52, 520093696
  %54 = icmp eq i32 %53, 0
  br i1 %54, label %55, label %58

55:                                               ; preds = %34
  %56 = load ptr, ptr %3, align 8, !tbaa !4
  %57 = call i32 @lj_ir_knull(ptr noundef %56, i32 noundef 11)
  br label %60

58:                                               ; preds = %34
  %59 = load i32, ptr %6, align 4, !tbaa !9
  br label %60

60:                                               ; preds = %58, %55
  %61 = phi i32 [ %57, %55 ], [ %59, %58 ]
  store i32 %61, ptr %8, align 4, !tbaa !9
  %62 = load ptr, ptr %3, align 8, !tbaa !4
  %63 = load i32, ptr %7, align 4, !tbaa !9
  %64 = trunc i32 %63 to i16
  %65 = load i32, ptr %8, align 4, !tbaa !9
  %66 = trunc i32 %65 to i16
  call void @lj_ir_set_(ptr noundef %62, i16 noundef zeroext 19723, i16 noundef zeroext %64, i16 noundef zeroext %66)
  %67 = load ptr, ptr %3, align 8, !tbaa !4
  %68 = call i32 @lj_opt_fold(ptr noundef %67)
  %69 = load i32, ptr %6, align 4, !tbaa !9
  %70 = and i32 %69, 520093696
  %71 = icmp eq i32 %70, 0
  br i1 %71, label %78, label %72

72:                                               ; preds = %60
  %73 = load ptr, ptr %3, align 8, !tbaa !4
  %74 = load i32, ptr %5, align 4, !tbaa !9
  %75 = trunc i32 %74 to i16
  call void @lj_ir_set_(ptr noundef %73, i16 noundef zeroext 22528, i16 noundef zeroext %75, i16 noundef zeroext 0)
  %76 = load ptr, ptr %3, align 8, !tbaa !4
  %77 = call i32 @lj_opt_fold(ptr noundef %76)
  br label %78

78:                                               ; preds = %72, %60
  %79 = load i32, ptr %5, align 4, !tbaa !9
  %80 = load ptr, ptr %3, align 8, !tbaa !4
  %81 = getelementptr inbounds nuw %struct.jit_State, ptr %80, i32 0, i32 6
  %82 = load ptr, ptr %81, align 8, !tbaa !41
  %83 = getelementptr inbounds i32, ptr %82, i64 0
  store i32 %79, ptr %83, align 4, !tbaa !9
  %84 = load ptr, ptr %3, align 8, !tbaa !4
  %85 = getelementptr inbounds nuw %struct.jit_State, ptr %84, i32 0, i32 11
  store i8 1, ptr %85, align 1, !tbaa !58
  call void @llvm.lifetime.end.p0(i64 72, ptr %9) #9
  call void @llvm.lifetime.end.p0(i64 4, ptr %8) #9
  call void @llvm.lifetime.end.p0(i64 4, ptr %7) #9
  br label %86

86:                                               ; preds = %78, %30, %27, %2
  call void @llvm.lifetime.end.p0(i64 4, ptr %6) #9
  call void @llvm.lifetime.end.p0(i64 4, ptr %5) #9
  ret void
}