; Function Attrs: nounwind uwtable
define internal void @recff_setmetatable(ptr noundef %0, ptr noundef readonly captures(none) %1) #0 {
  %3 = alloca %struct.RecordIndex, align 8
  %4 = getelementptr inbounds nuw i8, ptr %0, i64 160
  %5 = load ptr, ptr %4, align 8, !tbaa !37
  %6 = load i32, ptr %5, align 4, !tbaa !39
  %7 = getelementptr inbounds nuw i8, ptr %5, i64 4
  %8 = load i32, ptr %7, align 4, !tbaa !39
  %9 = and i32 %6, 520093696
  %10 = icmp eq i32 %9, 184549376
  br i1 %10, label %11, label %38

11:                                               ; preds = %2
  %12 = and i32 %8, 520093696
  %13 = icmp eq i32 %12, 184549376
  br i1 %13, label %16, label %14

14:                                               ; preds = %11
  %.not = icmp ne i32 %8, 0
  %15 = icmp eq i32 %12, 0
  %or.cond = and i1 %.not, %15
  br i1 %or.cond, label %16, label %38

16:                                               ; preds = %14, %11
  call void @llvm.lifetime.start.p0(i64 72, ptr nonnull %3) #9
  %17 = getelementptr inbounds nuw i8, ptr %3, i64 48
  store i32 %6, ptr %17, align 8, !tbaa !47
  %18 = load ptr, ptr %1, align 8, !tbaa !36
  %19 = load i64, ptr %18, align 8, !tbaa !4
  store i64 %19, ptr %3, align 8, !tbaa !4
  %20 = call i32 @lj_record_mm_lookup(ptr noundef nonnull %0, ptr noundef nonnull %3, i32 noundef 17) #9
  %21 = trunc i32 %6 to i16
  %22 = getelementptr inbounds nuw i8, ptr %0, i64 184
  %23 = getelementptr inbounds nuw i8, ptr %0, i64 188
  store i16 15881, ptr %23, align 4, !tbaa !4
  store i16 %21, ptr %22, align 8, !tbaa !4
  %24 = getelementptr inbounds nuw i8, ptr %0, i64 186
  store i16 5, ptr %24, align 2, !tbaa !4
  %25 = call i32 @lj_opt_fold(ptr noundef nonnull %0) #9
  %26 = icmp eq i32 %12, 0
  br i1 %26, label %27, label %.critedge

27:                                               ; preds = %16
  %28 = call i32 @lj_ir_knull(ptr noundef nonnull %0, i32 noundef 11) #9
  %29 = trunc i32 %25 to i16
  %30 = trunc i32 %28 to i16
  br label %34

.critedge:                                        ; preds = %16
  %31 = trunc i32 %25 to i16
  %32 = trunc i32 %8 to i16
  store i16 19723, ptr %23, align 4, !tbaa !4
  store i16 %31, ptr %22, align 8, !tbaa !4
  store i16 %32, ptr %24, align 2, !tbaa !4
  %33 = call i32 @lj_opt_fold(ptr noundef nonnull %0) #9
  br label %34

34:                                               ; preds = %27, %.critedge
  %.sink27 = phi i16 [ 19723, %27 ], [ 22528, %.critedge ]
  %.sink26 = phi i16 [ %29, %27 ], [ %21, %.critedge ]
  %.sink = phi i16 [ %30, %27 ], [ 0, %.critedge ]
  store i16 %.sink27, ptr %23, align 4, !tbaa !4
  store i16 %.sink26, ptr %22, align 8, !tbaa !4
  store i16 %.sink, ptr %24, align 2, !tbaa !4
  %35 = call i32 @lj_opt_fold(ptr noundef nonnull %0) #9
  %36 = load ptr, ptr %4, align 8, !tbaa !37
  store i32 %6, ptr %36, align 4, !tbaa !39
  %37 = getelementptr inbounds nuw i8, ptr %0, i64 181
  store i8 1, ptr %37, align 1, !tbaa !54
  call void @llvm.lifetime.end.p0(i64 72, ptr nonnull %3) #9
  br label %38

38:                                               ; preds = %34, %14, %2
  ret void
}